CCS PCM C Compiler, Version 5.015, 5967               28-Jun-24 21:31

               Filename:   C:\Users\amora\OneDrive - Instituto Politecnico Nacional\ESCOM\ESCOM\Intrumentacion-y-control\Proyectos\Proyecto_final\measurement-application\src\assets\PIC16F877A project\main.lst

               ROM used:   2138 words (26%)
                           Largest free fragment is 2048
               RAM used:   44 (12%) at main() level
                           75 (20%) worst case
               Stack used: 4 locations (1 in main + 3 for interrupts)
               Stack size: 8

*
0000:  MOVLW  08
0001:  MOVWF  0A
0002:  GOTO   01C
0003:  NOP
0004:  MOVWF  7F
0005:  SWAPF  03,W
0006:  CLRF   03
0007:  MOVWF  21
0008:  MOVF   0A,W
0009:  MOVWF  20
000A:  CLRF   0A
000B:  MOVF   04,W
000C:  MOVWF  22
000D:  MOVF   77,W
000E:  MOVWF  23
000F:  MOVF   78,W
0010:  MOVWF  24
0011:  MOVF   79,W
0012:  MOVWF  25
0013:  MOVF   7A,W
0014:  MOVWF  26
0015:  BSF    03.6
0016:  MOVF   0D,W
0017:  BCF    03.6
0018:  MOVWF  27
0019:  BSF    03.6
001A:  MOVF   0F,W
001B:  BCF    03.6
001C:  MOVWF  28
001D:  BSF    03.6
001E:  MOVF   0C,W
001F:  BCF    03.6
0020:  MOVWF  29
0021:  BSF    03.6
0022:  MOVF   0E,W
0023:  BCF    03.6
0024:  MOVWF  2A
0025:  BCF    03.7
0026:  BCF    03.5
0027:  MOVLW  8C
0028:  MOVWF  04
0029:  BTFSS  00.5
002A:  GOTO   02D
002B:  BTFSC  0C.5
002C:  GOTO   05A
002D:  MOVLW  8C
002E:  MOVWF  04
002F:  BTFSS  00.0
0030:  GOTO   033
0031:  BTFSC  0C.0
0032:  GOTO   05D
0033:  MOVLW  8C
0034:  MOVWF  04
0035:  BTFSS  00.1
0036:  GOTO   039
0037:  BTFSC  0C.1
0038:  GOTO   060
0039:  MOVF   22,W
003A:  MOVWF  04
003B:  MOVF   23,W
003C:  MOVWF  77
003D:  MOVF   24,W
003E:  MOVWF  78
003F:  MOVF   25,W
0040:  MOVWF  79
0041:  MOVF   26,W
0042:  MOVWF  7A
0043:  MOVF   27,W
0044:  BSF    03.6
0045:  MOVWF  0D
0046:  BCF    03.6
0047:  MOVF   28,W
0048:  BSF    03.6
0049:  MOVWF  0F
004A:  BCF    03.6
004B:  MOVF   29,W
004C:  BSF    03.6
004D:  MOVWF  0C
004E:  BCF    03.6
004F:  MOVF   2A,W
0050:  BSF    03.6
0051:  MOVWF  0E
0052:  BCF    03.6
0053:  MOVF   20,W
0054:  MOVWF  0A
0055:  SWAPF  21,W
0056:  MOVWF  03
0057:  SWAPF  7F,F
0058:  SWAPF  7F,W
0059:  RETFIE
005A:  BCF    0A.3
005B:  BCF    0A.4
005C:  GOTO   4A7
005D:  BCF    0A.3
005E:  BCF    0A.4
005F:  GOTO   705
0060:  BCF    0A.3
0061:  BCF    0A.4
0062:  GOTO   77A
.................... #include <main.h> 
.................... #include <16F877A.h> 
.................... //////////// Standard Header file for the PIC16F877A device //////////////// 
.................... /////////////////////////////////////////////////////////////////////////// 
.................... ////        (C) Copyright 1996, 2013 Custom Computer Services          //// 
.................... //// This source code may only be used by licensed users of the CCS C  //// 
.................... //// compiler.  This source code may only be distributed to other      //// 
.................... //// licensed users of the CCS C compiler.  No other use, reproduction //// 
.................... //// or distribution is permitted without written permission.          //// 
.................... //// Derivative programs created using this software in object code    //// 
.................... //// form are not restricted in any way.                               //// 
.................... /////////////////////////////////////////////////////////////////////////// 
.................... #device PIC16F877A 
0063:  DATA 2D,10
0064:  DATA 50,39
0065:  DATA EF,33
0066:  DATA F2,30
0067:  DATA ED,30
0068:  DATA A0,34
0069:  DATA EE,34
006A:  DATA E3,34
006B:  DATA 61,32
006C:  DATA 6F,10
006D:  DATA 2D,00
006E:  MOVF   0B,W
006F:  MOVWF  4C
0070:  BCF    0B.7
0071:  BSF    03.5
0072:  BSF    03.6
0073:  BSF    0C.7
0074:  BSF    0C.0
0075:  NOP
0076:  NOP
0077:  BCF    03.5
0078:  BCF    03.6
0079:  BTFSC  4C.7
007A:  BSF    0B.7
007B:  BSF    03.6
007C:  MOVF   0C,W
007D:  ANDLW  7F
007E:  BTFSC  03.2
007F:  GOTO   0C4
0080:  BCF    03.6
0081:  MOVWF  4C
0082:  BSF    03.6
0083:  MOVF   0D,W
0084:  BCF    03.6
0085:  MOVWF  4D
0086:  BSF    03.6
0087:  MOVF   0F,W
0088:  BCF    03.6
0089:  MOVWF  4E
008A:  MOVF   4C,W
008B:  BTFSS  0C.4
008C:  GOTO   08B
008D:  MOVWF  19
008E:  MOVF   4D,W
008F:  BSF    03.6
0090:  MOVWF  0D
0091:  BCF    03.6
0092:  MOVF   4E,W
0093:  BSF    03.6
0094:  MOVWF  0F
0095:  BCF    03.6
0096:  MOVF   0B,W
0097:  MOVWF  4F
0098:  BCF    0B.7
0099:  BSF    03.5
009A:  BSF    03.6
009B:  BSF    0C.7
009C:  BSF    0C.0
009D:  NOP
009E:  NOP
009F:  BCF    03.5
00A0:  BCF    03.6
00A1:  BTFSC  4F.7
00A2:  BSF    0B.7
00A3:  BSF    03.6
00A4:  RLF    0C,W
00A5:  RLF    0E,W
00A6:  ANDLW  7F
00A7:  BTFSC  03.2
00A8:  GOTO   0C4
00A9:  BCF    03.6
00AA:  MOVWF  4C
00AB:  BSF    03.6
00AC:  MOVF   0D,W
00AD:  BCF    03.6
00AE:  MOVWF  4D
00AF:  BSF    03.6
00B0:  MOVF   0F,W
00B1:  BCF    03.6
00B2:  MOVWF  4E
00B3:  MOVF   4C,W
00B4:  BTFSS  0C.4
00B5:  GOTO   0B4
00B6:  MOVWF  19
00B7:  MOVF   4D,W
00B8:  BSF    03.6
00B9:  MOVWF  0D
00BA:  BCF    03.6
00BB:  MOVF   4E,W
00BC:  BSF    03.6
00BD:  MOVWF  0F
00BE:  INCF   0D,F
00BF:  BTFSC  03.2
00C0:  INCF   0F,F
00C1:  BCF    03.6
00C2:  GOTO   06E
00C3:  BSF    03.6
00C4:  BCF    03.6
00C5:  RETURN
00C6:  MOVF   59,W
00C7:  BTFSC  03.2
00C8:  GOTO   136
00C9:  MOVWF  61
00CA:  MOVF   5D,W
00CB:  BTFSC  03.2
00CC:  GOTO   136
00CD:  ADDWF  61,F
00CE:  BTFSC  03.0
00CF:  GOTO   0D7
00D0:  MOVLW  7F
00D1:  SUBWF  61,F
00D2:  BTFSS  03.0
00D3:  GOTO   136
00D4:  BTFSC  03.2
00D5:  GOTO   136
00D6:  GOTO   0DB
00D7:  MOVLW  81
00D8:  ADDWF  61,F
00D9:  BTFSC  03.0
00DA:  GOTO   136
00DB:  MOVF   61,W
00DC:  MOVWF  77
00DD:  CLRF   78
00DE:  CLRF   79
00DF:  CLRF   7A
00E0:  MOVF   5A,W
00E1:  MOVWF  65
00E2:  BSF    65.7
00E3:  MOVF   5B,W
00E4:  MOVWF  64
00E5:  MOVF   5C,W
00E6:  MOVWF  63
00E7:  MOVLW  18
00E8:  MOVWF  61
00E9:  CLRF   62
00EA:  BTFSS  63.0
00EB:  GOTO   104
00EC:  MOVF   60,W
00ED:  ADDWF  7A,F
00EE:  BTFSS  03.0
00EF:  GOTO   0F6
00F0:  INCF   79,F
00F1:  BTFSS  03.2
00F2:  GOTO   0F6
00F3:  INCF   78,F
00F4:  BTFSC  03.2
00F5:  BSF    62.7
00F6:  MOVF   5F,W
00F7:  ADDWF  79,F
00F8:  BTFSS  03.0
00F9:  GOTO   0FD
00FA:  INCF   78,F
00FB:  BTFSC  03.2
00FC:  BSF    62.7
00FD:  MOVF   5E,W
00FE:  MOVWF  5B
00FF:  BSF    5B.7
0100:  MOVF   5B,W
0101:  ADDWF  78,F
0102:  BTFSC  03.0
0103:  BSF    62.7
0104:  RLF    62,F
0105:  RRF    78,F
0106:  RRF    79,F
0107:  RRF    7A,F
0108:  RRF    65,F
0109:  RRF    64,F
010A:  RRF    63,F
010B:  BCF    03.0
010C:  DECFSZ 61,F
010D:  GOTO   0E9
010E:  MOVLW  01
010F:  ADDWF  77,F
0110:  BTFSC  03.0
0111:  GOTO   136
0112:  BTFSC  78.7
0113:  GOTO   11B
0114:  RLF    65,F
0115:  RLF    7A,F
0116:  RLF    79,F
0117:  RLF    78,F
0118:  DECF   77,F
0119:  BTFSC  03.2
011A:  GOTO   136
011B:  BTFSS  65.7
011C:  GOTO   12C
011D:  INCF   7A,F
011E:  BTFSS  03.2
011F:  GOTO   12C
0120:  INCF   79,F
0121:  BTFSS  03.2
0122:  GOTO   12C
0123:  INCF   78,F
0124:  BTFSS  03.2
0125:  GOTO   12C
0126:  RRF    78,F
0127:  RRF    79,F
0128:  RRF    7A,F
0129:  INCF   77,F
012A:  BTFSC  03.2
012B:  GOTO   136
012C:  MOVF   5A,W
012D:  MOVWF  62
012E:  MOVF   5E,W
012F:  XORWF  62,F
0130:  BTFSS  62.7
0131:  GOTO   134
0132:  BSF    78.7
0133:  GOTO   13A
0134:  BCF    78.7
0135:  GOTO   13A
0136:  CLRF   77
0137:  CLRF   78
0138:  CLRF   79
0139:  CLRF   7A
013A:  RETURN
*
0152:  MOVLW  8E
0153:  MOVWF  77
0154:  MOVF   4E,W
0155:  MOVWF  78
0156:  MOVF   4D,W
0157:  MOVWF  79
0158:  CLRF   7A
0159:  MOVF   78,F
015A:  BTFSS  03.2
015B:  GOTO   166
015C:  MOVF   79,W
015D:  MOVWF  78
015E:  CLRF   79
015F:  MOVLW  08
0160:  SUBWF  77,F
0161:  MOVF   78,F
0162:  BTFSS  03.2
0163:  GOTO   166
0164:  CLRF   77
0165:  GOTO   16E
0166:  BCF    03.0
0167:  BTFSC  78.7
0168:  GOTO   16D
0169:  RLF    79,F
016A:  RLF    78,F
016B:  DECF   77,F
016C:  GOTO   166
016D:  BCF    78.7
*
01AB:  MOVLW  80
01AC:  BTFSC  03.1
01AD:  XORWF  52,F
01AE:  CLRF   57
01AF:  CLRF   58
01B0:  MOVF   4E,W
01B1:  MOVWF  56
01B2:  MOVF   52,W
01B3:  XORWF  56,F
01B4:  MOVF   4D,W
01B5:  BTFSC  03.2
01B6:  GOTO   29B
01B7:  MOVWF  55
01B8:  MOVWF  77
01B9:  MOVF   51,W
01BA:  BTFSC  03.2
01BB:  GOTO   2A4
01BC:  SUBWF  55,F
01BD:  BTFSC  03.2
01BE:  GOTO   240
01BF:  BTFSS  03.0
01C0:  GOTO   1FE
01C1:  MOVF   52,W
01C2:  MOVWF  5B
01C3:  BSF    5B.7
01C4:  MOVF   53,W
01C5:  MOVWF  5A
01C6:  MOVF   54,W
01C7:  MOVWF  59
01C8:  CLRF   58
01C9:  BCF    03.0
01CA:  RRF    5B,F
01CB:  RRF    5A,F
01CC:  RRF    59,F
01CD:  RRF    58,F
01CE:  DECFSZ 55,F
01CF:  GOTO   1C8
01D0:  BTFSS  56.7
01D1:  GOTO   1D5
01D2:  BSF    57.0
01D3:  GOTO   2B8
01D4:  BCF    57.0
01D5:  BCF    55.0
01D6:  BSF    57.4
01D7:  MOVLW  50
01D8:  MOVWF  04
01D9:  BCF    03.7
01DA:  GOTO   2CD
01DB:  BCF    57.4
01DC:  BTFSC  56.7
01DD:  GOTO   1E8
01DE:  BTFSS  55.0
01DF:  GOTO   1F3
01E0:  RRF    5B,F
01E1:  RRF    5A,F
01E2:  RRF    59,F
01E3:  RRF    58,F
01E4:  INCF   77,F
01E5:  BTFSC  03.2
01E6:  GOTO   2B3
01E7:  GOTO   1F3
01E8:  BTFSC  5B.7
01E9:  GOTO   1F6
01EA:  BCF    03.0
01EB:  RLF    58,F
01EC:  RLF    59,F
01ED:  RLF    5A,F
01EE:  RLF    5B,F
01EF:  DECF   77,F
01F0:  BTFSC  03.2
01F1:  GOTO   2B3
01F2:  GOTO   1E8
01F3:  BSF    57.6
01F4:  GOTO   260
01F5:  BCF    57.6
01F6:  MOVF   4E,W
01F7:  MOVWF  56
01F8:  BTFSS  56.7
01F9:  GOTO   1FC
01FA:  BSF    5B.7
01FB:  GOTO   2AC
01FC:  BCF    5B.7
01FD:  GOTO   2AC
01FE:  MOVF   51,W
01FF:  MOVWF  55
0200:  MOVWF  77
0201:  MOVF   4D,W
0202:  SUBWF  55,F
0203:  MOVF   4E,W
0204:  MOVWF  5B
0205:  BSF    5B.7
0206:  MOVF   4F,W
0207:  MOVWF  5A
0208:  MOVF   50,W
0209:  MOVWF  59
020A:  CLRF   58
020B:  BCF    03.0
020C:  RRF    5B,F
020D:  RRF    5A,F
020E:  RRF    59,F
020F:  RRF    58,F
0210:  DECFSZ 55,F
0211:  GOTO   20A
0212:  BTFSS  56.7
0213:  GOTO   217
0214:  BSF    57.1
0215:  GOTO   2B8
0216:  BCF    57.1
0217:  BCF    55.0
0218:  BSF    57.5
0219:  MOVLW  54
021A:  MOVWF  04
021B:  BCF    03.7
021C:  GOTO   2CD
021D:  BCF    57.5
021E:  BTFSC  56.7
021F:  GOTO   22A
0220:  BTFSS  55.0
0221:  GOTO   235
0222:  RRF    5B,F
0223:  RRF    5A,F
0224:  RRF    59,F
0225:  RRF    58,F
0226:  INCF   77,F
0227:  BTFSC  03.2
0228:  GOTO   2B3
0229:  GOTO   235
022A:  BTFSC  5B.7
022B:  GOTO   238
022C:  BCF    03.0
022D:  RLF    58,F
022E:  RLF    59,F
022F:  RLF    5A,F
0230:  RLF    5B,F
0231:  DECF   77,F
0232:  BTFSC  03.2
0233:  GOTO   2B3
0234:  GOTO   22A
0235:  BSF    57.7
0236:  GOTO   260
0237:  BCF    57.7
0238:  MOVF   52,W
0239:  MOVWF  56
023A:  BTFSS  56.7
023B:  GOTO   23E
023C:  BSF    5B.7
023D:  GOTO   2AC
023E:  BCF    5B.7
023F:  GOTO   2AC
0240:  MOVF   52,W
0241:  MOVWF  5B
0242:  BSF    5B.7
0243:  MOVF   53,W
0244:  MOVWF  5A
0245:  MOVF   54,W
0246:  MOVWF  59
0247:  BTFSS  56.7
0248:  GOTO   24D
0249:  BCF    5B.7
024A:  BSF    57.2
024B:  GOTO   2B8
024C:  BCF    57.2
024D:  CLRF   58
024E:  BCF    55.0
024F:  MOVLW  50
0250:  MOVWF  04
0251:  BCF    03.7
0252:  GOTO   2CD
0253:  BTFSC  56.7
0254:  GOTO   276
0255:  MOVF   4E,W
0256:  MOVWF  56
0257:  BTFSS  55.0
0258:  GOTO   260
0259:  RRF    5B,F
025A:  RRF    5A,F
025B:  RRF    59,F
025C:  RRF    58,F
025D:  INCF   77,F
025E:  BTFSC  03.2
025F:  GOTO   2B3
0260:  BTFSS  58.7
0261:  GOTO   271
0262:  INCF   59,F
0263:  BTFSS  03.2
0264:  GOTO   271
0265:  INCF   5A,F
0266:  BTFSS  03.2
0267:  GOTO   271
0268:  INCF   5B,F
0269:  BTFSS  03.2
026A:  GOTO   271
026B:  RRF    5B,F
026C:  RRF    5A,F
026D:  RRF    59,F
026E:  INCF   77,F
026F:  BTFSC  03.2
0270:  GOTO   2B3
0271:  BTFSC  57.6
0272:  GOTO   1F5
0273:  BTFSC  57.7
0274:  GOTO   237
0275:  GOTO   295
0276:  MOVLW  80
0277:  XORWF  5B,F
0278:  BTFSS  5B.7
0279:  GOTO   27E
027A:  GOTO   2B8
027B:  MOVF   52,W
027C:  MOVWF  56
027D:  GOTO   28B
027E:  MOVF   4E,W
027F:  MOVWF  56
0280:  MOVF   5B,F
0281:  BTFSS  03.2
0282:  GOTO   28B
0283:  MOVF   5A,F
0284:  BTFSS  03.2
0285:  GOTO   28B
0286:  MOVF   59,F
0287:  BTFSS  03.2
0288:  GOTO   28B
0289:  CLRF   77
028A:  GOTO   2AC
028B:  BTFSC  5B.7
028C:  GOTO   295
028D:  BCF    03.0
028E:  RLF    58,F
028F:  RLF    59,F
0290:  RLF    5A,F
0291:  RLF    5B,F
0292:  DECFSZ 77,F
0293:  GOTO   28B
0294:  GOTO   2B3
0295:  BTFSS  56.7
0296:  GOTO   299
0297:  BSF    5B.7
0298:  GOTO   2AC
0299:  BCF    5B.7
029A:  GOTO   2AC
029B:  MOVF   51,W
029C:  MOVWF  77
029D:  MOVF   52,W
029E:  MOVWF  5B
029F:  MOVF   53,W
02A0:  MOVWF  5A
02A1:  MOVF   54,W
02A2:  MOVWF  59
02A3:  GOTO   2AC
02A4:  MOVF   4D,W
02A5:  MOVWF  77
02A6:  MOVF   4E,W
02A7:  MOVWF  5B
02A8:  MOVF   4F,W
02A9:  MOVWF  5A
02AA:  MOVF   50,W
02AB:  MOVWF  59
02AC:  MOVF   5B,W
02AD:  MOVWF  78
02AE:  MOVF   5A,W
02AF:  MOVWF  79
02B0:  MOVF   59,W
02B1:  MOVWF  7A
02B2:  GOTO   2EB
02B3:  CLRF   77
02B4:  CLRF   78
02B5:  CLRF   79
02B6:  CLRF   7A
02B7:  GOTO   2EB
02B8:  CLRF   58
02B9:  COMF   59,F
02BA:  COMF   5A,F
02BB:  COMF   5B,F
02BC:  COMF   58,F
02BD:  INCF   58,F
02BE:  BTFSS  03.2
02BF:  GOTO   2C6
02C0:  INCF   59,F
02C1:  BTFSS  03.2
02C2:  GOTO   2C6
02C3:  INCF   5A,F
02C4:  BTFSC  03.2
02C5:  INCF   5B,F
02C6:  BTFSC  57.0
02C7:  GOTO   1D4
02C8:  BTFSC  57.1
02C9:  GOTO   216
02CA:  BTFSC  57.2
02CB:  GOTO   24C
02CC:  GOTO   27B
02CD:  MOVF   00,W
02CE:  ADDWF  59,F
02CF:  BTFSS  03.0
02D0:  GOTO   2D7
02D1:  INCF   5A,F
02D2:  BTFSS  03.2
02D3:  GOTO   2D7
02D4:  INCF   5B,F
02D5:  BTFSC  03.2
02D6:  BSF    55.0
02D7:  DECF   04,F
02D8:  MOVF   00,W
02D9:  ADDWF  5A,F
02DA:  BTFSS  03.0
02DB:  GOTO   2DF
02DC:  INCF   5B,F
02DD:  BTFSC  03.2
02DE:  BSF    55.0
02DF:  DECF   04,F
02E0:  MOVF   00,W
02E1:  BTFSS  00.7
02E2:  XORLW  80
02E3:  ADDWF  5B,F
02E4:  BTFSC  03.0
02E5:  BSF    55.0
02E6:  BTFSC  57.4
02E7:  GOTO   1DB
02E8:  BTFSC  57.5
02E9:  GOTO   21D
02EA:  GOTO   253
*
030C:  MOVF   4E,W
030D:  MOVWF  55
030E:  MOVF   52,W
030F:  XORWF  55,F
0310:  BTFSS  55.7
0311:  GOTO   317
0312:  BCF    03.2
0313:  BCF    03.0
0314:  BTFSC  4E.7
0315:  BSF    03.0
0316:  GOTO   34A
0317:  MOVF   4E,W
0318:  MOVWF  55
0319:  MOVF   51,W
031A:  MOVWF  56
031B:  MOVF   4D,W
031C:  SUBWF  56,F
031D:  BTFSC  03.2
031E:  GOTO   325
031F:  BTFSS  55.7
0320:  GOTO   34A
0321:  MOVF   03,W
0322:  XORLW  01
0323:  MOVWF  03
0324:  GOTO   34A
0325:  MOVF   52,W
0326:  MOVWF  56
0327:  MOVF   4E,W
0328:  SUBWF  56,F
0329:  BTFSC  03.2
032A:  GOTO   331
032B:  BTFSS  55.7
032C:  GOTO   34A
032D:  MOVF   03,W
032E:  XORLW  01
032F:  MOVWF  03
0330:  GOTO   34A
0331:  MOVF   53,W
0332:  MOVWF  56
0333:  MOVF   4F,W
0334:  SUBWF  56,F
0335:  BTFSC  03.2
0336:  GOTO   33D
0337:  BTFSS  55.7
0338:  GOTO   34A
0339:  MOVF   03,W
033A:  XORLW  01
033B:  MOVWF  03
033C:  GOTO   34A
033D:  MOVF   54,W
033E:  MOVWF  56
033F:  MOVF   50,W
0340:  SUBWF  56,F
0341:  BTFSC  03.2
0342:  GOTO   349
0343:  BTFSS  55.7
0344:  GOTO   34A
0345:  MOVF   03,W
0346:  XORLW  01
0347:  MOVWF  03
0348:  GOTO   34A
0349:  BCF    03.0
034A:  RETURN
034B:  BTFSC  03.1
034C:  GOTO   350
034D:  MOVLW  61
034E:  MOVWF  04
034F:  BCF    03.7
0350:  CLRF   77
0351:  CLRF   78
0352:  CLRF   79
0353:  CLRF   7A
0354:  CLRF   61
0355:  CLRF   62
0356:  CLRF   63
0357:  CLRF   64
0358:  MOVF   60,W
0359:  IORWF  5F,W
035A:  IORWF  5E,W
035B:  IORWF  5D,W
035C:  BTFSC  03.2
035D:  GOTO   38E
035E:  MOVLW  20
035F:  MOVWF  65
0360:  BCF    03.0
0361:  RLF    59,F
0362:  RLF    5A,F
0363:  RLF    5B,F
0364:  RLF    5C,F
0365:  RLF    61,F
0366:  RLF    62,F
0367:  RLF    63,F
0368:  RLF    64,F
0369:  MOVF   60,W
036A:  SUBWF  64,W
036B:  BTFSS  03.2
036C:  GOTO   377
036D:  MOVF   5F,W
036E:  SUBWF  63,W
036F:  BTFSS  03.2
0370:  GOTO   377
0371:  MOVF   5E,W
0372:  SUBWF  62,W
0373:  BTFSS  03.2
0374:  GOTO   377
0375:  MOVF   5D,W
0376:  SUBWF  61,W
0377:  BTFSS  03.0
0378:  GOTO   388
0379:  MOVF   5D,W
037A:  SUBWF  61,F
037B:  MOVF   5E,W
037C:  BTFSS  03.0
037D:  INCFSZ 5E,W
037E:  SUBWF  62,F
037F:  MOVF   5F,W
0380:  BTFSS  03.0
0381:  INCFSZ 5F,W
0382:  SUBWF  63,F
0383:  MOVF   60,W
0384:  BTFSS  03.0
0385:  INCFSZ 60,W
0386:  SUBWF  64,F
0387:  BSF    03.0
0388:  RLF    77,F
0389:  RLF    78,F
038A:  RLF    79,F
038B:  RLF    7A,F
038C:  DECFSZ 65,F
038D:  GOTO   360
038E:  MOVF   61,W
038F:  MOVWF  00
0390:  INCF   04,F
0391:  MOVF   62,W
0392:  MOVWF  00
0393:  INCF   04,F
0394:  MOVF   63,W
0395:  MOVWF  00
0396:  INCF   04,F
0397:  MOVF   64,W
0398:  MOVWF  00
0399:  RETURN
039A:  MOVF   04,W
039B:  MOVWF  51
039C:  MOVF   50,W
039D:  MOVWF  53
039E:  BTFSC  03.2
039F:  GOTO   3B9
03A0:  MOVF   4F,W
03A1:  MOVWF  5C
03A2:  MOVF   4E,W
03A3:  MOVWF  5B
03A4:  MOVF   4D,W
03A5:  MOVWF  5A
03A6:  MOVF   4C,W
03A7:  MOVWF  59
03A8:  CLRF   60
03A9:  CLRF   5F
03AA:  MOVLW  20
03AB:  MOVWF  5E
03AC:  MOVLW  82
03AD:  MOVWF  5D
03AE:  CALL   0C6
03AF:  MOVF   7A,W
03B0:  MOVWF  4F
03B1:  MOVF   79,W
03B2:  MOVWF  4E
03B3:  MOVF   78,W
03B4:  MOVWF  4D
03B5:  MOVF   77,W
03B6:  MOVWF  4C
03B7:  DECFSZ 53,F
03B8:  GOTO   3A0
03B9:  MOVF   4F,W
03BA:  MOVWF  5C
03BB:  MOVF   4E,W
03BC:  MOVWF  5B
03BD:  MOVF   4D,W
03BE:  MOVWF  5A
03BF:  MOVF   4C,W
03C0:  MOVWF  59
03C1:  MOVF   59,W
03C2:  SUBLW  B6
03C3:  MOVWF  59
03C4:  CLRF   7A
03C5:  MOVF   5A,W
03C6:  MOVWF  5D
03C7:  BSF    5A.7
03C8:  BCF    03.0
03C9:  RRF    5A,F
03CA:  RRF    5B,F
03CB:  RRF    5C,F
03CC:  RRF    7A,F
03CD:  RRF    79,F
03CE:  RRF    78,F
03CF:  RRF    77,F
03D0:  DECFSZ 59,F
03D1:  GOTO   3C8
03D2:  BTFSS  5D.7
03D3:  GOTO   3DF
03D4:  COMF   77,F
03D5:  COMF   78,F
03D6:  COMF   79,F
03D7:  COMF   7A,F
03D8:  INCF   77,F
03D9:  BTFSC  03.2
03DA:  INCF   78,F
03DB:  BTFSC  03.2
03DC:  INCF   79,F
03DD:  BTFSC  03.2
03DE:  INCF   7A,F
03DF:  MOVF   7A,W
03E0:  MOVWF  4F
03E1:  MOVF   79,W
03E2:  MOVWF  4E
03E3:  MOVF   78,W
03E4:  MOVWF  4D
03E5:  MOVF   77,W
03E6:  MOVWF  4C
03E7:  BTFSS  4F.7
03E8:  GOTO   3F6
03E9:  DECF   51,F
03EA:  BSF    51.5
03EB:  COMF   4C,F
03EC:  COMF   4D,F
03ED:  COMF   4E,F
03EE:  COMF   4F,F
03EF:  INCF   4C,F
03F0:  BTFSC  03.2
03F1:  INCF   4D,F
03F2:  BTFSC  03.2
03F3:  INCF   4E,F
03F4:  BTFSC  03.2
03F5:  INCF   4F,F
03F6:  MOVLW  3B
03F7:  MOVWF  58
03F8:  MOVLW  9A
03F9:  MOVWF  57
03FA:  MOVLW  CA
03FB:  MOVWF  56
03FC:  CLRF   55
03FD:  MOVLW  0A
03FE:  MOVWF  53
03FF:  MOVF   50,W
0400:  BTFSC  03.2
0401:  INCF   51,F
0402:  BSF    03.1
0403:  MOVLW  4C
0404:  MOVWF  04
0405:  BCF    03.7
0406:  MOVF   4F,W
0407:  MOVWF  5C
0408:  MOVF   4E,W
0409:  MOVWF  5B
040A:  MOVF   4D,W
040B:  MOVWF  5A
040C:  MOVF   4C,W
040D:  MOVWF  59
040E:  MOVF   58,W
040F:  MOVWF  60
0410:  MOVF   57,W
0411:  MOVWF  5F
0412:  MOVF   56,W
0413:  MOVWF  5E
0414:  MOVF   55,W
0415:  MOVWF  5D
0416:  CALL   34B
0417:  MOVF   78,W
0418:  MOVF   77,F
0419:  BTFSS  03.2
041A:  GOTO   42E
041B:  INCF   50,W
041C:  SUBWF  53,W
041D:  BTFSC  03.2
041E:  GOTO   42E
041F:  MOVF   51,W
0420:  BTFSC  03.2
0421:  GOTO   430
0422:  ANDLW  0F
0423:  SUBWF  53,W
0424:  BTFSC  03.2
0425:  GOTO   428
0426:  BTFSC  03.0
0427:  GOTO   464
0428:  BTFSC  51.7
0429:  GOTO   464
042A:  BTFSC  51.6
042B:  GOTO   430
042C:  MOVLW  20
042D:  GOTO   45F
042E:  MOVLW  20
042F:  ANDWF  51,F
0430:  BTFSS  51.5
0431:  GOTO   43F
0432:  BCF    51.5
0433:  MOVF   50,W
0434:  BTFSS  03.2
0435:  DECF   51,F
0436:  MOVF   77,W
0437:  MOVWF  51
0438:  MOVLW  2D
0439:  BTFSS  0C.4
043A:  GOTO   439
043B:  MOVWF  19
043C:  MOVF   51,W
043D:  MOVWF  77
043E:  CLRF   51
043F:  MOVF   50,W
0440:  SUBWF  53,W
0441:  BTFSS  03.2
0442:  GOTO   44E
0443:  MOVF   77,W
0444:  MOVWF  51
0445:  MOVLW  2E
0446:  BTFSS  0C.4
0447:  GOTO   446
0448:  MOVWF  19
0449:  MOVF   51,W
044A:  MOVWF  77
044B:  MOVLW  20
044C:  ANDWF  51,F
044D:  MOVLW  00
044E:  MOVLW  30
044F:  BTFSS  51.5
0450:  GOTO   45F
0451:  BCF    51.5
0452:  MOVF   50,W
0453:  BTFSS  03.2
0454:  DECF   51,F
0455:  MOVF   77,W
0456:  MOVWF  51
0457:  MOVLW  2D
0458:  BTFSS  0C.4
0459:  GOTO   458
045A:  MOVWF  19
045B:  MOVF   51,W
045C:  MOVWF  77
045D:  CLRF   51
045E:  MOVLW  30
045F:  ADDWF  77,F
0460:  MOVF   77,W
0461:  BTFSS  0C.4
0462:  GOTO   461
0463:  MOVWF  19
0464:  BCF    03.1
0465:  MOVF   58,W
0466:  MOVWF  5C
0467:  MOVF   57,W
0468:  MOVWF  5B
0469:  MOVF   56,W
046A:  MOVWF  5A
046B:  MOVF   55,W
046C:  MOVWF  59
046D:  CLRF   60
046E:  CLRF   5F
046F:  CLRF   5E
0470:  MOVLW  0A
0471:  MOVWF  5D
0472:  CALL   34B
0473:  MOVF   7A,W
0474:  MOVWF  58
0475:  MOVF   79,W
0476:  MOVWF  57
0477:  MOVF   78,W
0478:  MOVWF  56
0479:  MOVF   77,W
047A:  MOVWF  55
047B:  DECFSZ 53,F
047C:  GOTO   402
047D:  RETURN
047E:  MOVF   0B,W
047F:  MOVWF  4D
0480:  BCF    0B.7
0481:  BSF    03.5
0482:  BSF    03.6
0483:  BSF    0C.7
0484:  BSF    0C.0
0485:  NOP
0486:  NOP
0487:  BCF    03.5
0488:  BCF    03.6
0489:  BTFSC  4D.7
048A:  BSF    0B.7
048B:  BSF    03.6
048C:  MOVF   0D,W
048D:  BCF    03.6
048E:  MOVWF  4D
048F:  BSF    03.6
0490:  MOVF   0F,W
0491:  BCF    03.6
0492:  MOVWF  4E
0493:  BSF    03.6
0494:  MOVF   0C,W
0495:  BCF    03.6
0496:  BTFSS  0C.4
0497:  GOTO   496
0498:  MOVWF  19
0499:  MOVF   4D,W
049A:  BSF    03.6
049B:  MOVWF  0D
049C:  BCF    03.6
049D:  MOVF   4E,W
049E:  BSF    03.6
049F:  MOVWF  0F
04A0:  INCF   0D,F
04A1:  BTFSC  03.2
04A2:  INCF   0F,F
04A3:  BCF    03.6
04A4:  DECFSZ 4C,F
04A5:  GOTO   47E
04A6:  RETURN
*
0627:  BCF    03.6
0628:  MOVF   0B,W
0629:  MOVWF  4C
062A:  BCF    0B.7
062B:  BSF    03.5
062C:  BSF    03.6
062D:  BSF    0C.7
062E:  BSF    0C.0
062F:  NOP
0630:  NOP
0631:  BCF    03.5
0632:  BCF    03.6
0633:  BTFSC  4C.7
0634:  BSF    0B.7
0635:  BSF    03.6
0636:  MOVF   0C,F
0637:  BTFSC  03.2
0638:  GOTO   651
0639:  MOVF   0D,W
063A:  BCF    03.6
063B:  MOVWF  4C
063C:  BSF    03.6
063D:  MOVF   0F,W
063E:  BCF    03.6
063F:  MOVWF  4D
0640:  BSF    03.6
0641:  MOVF   0C,W
0642:  BCF    03.6
0643:  BTFSS  0C.4
0644:  GOTO   643
0645:  MOVWF  19
0646:  MOVF   4C,W
0647:  BSF    03.6
0648:  MOVWF  0D
0649:  BCF    03.6
064A:  MOVF   4D,W
064B:  BSF    03.6
064C:  MOVWF  0F
064D:  INCF   0D,F
064E:  BTFSC  03.2
064F:  INCF   0F,F
0650:  GOTO   627
*
0678:  RETLW  43
0679:  RETLW  61
067A:  RETLW  72
067B:  RETLW  E1
067C:  RETLW  63
067D:  RETLW  74
067E:  RETLW  65
067F:  RETLW  72
0680:  RETLW  20
0681:  RETLW  6E
0682:  RETLW  6F
0683:  RETLW  20
0684:  RETLW  72
0685:  RETLW  65
0686:  RETLW  63
0687:  RETLW  6F
0688:  RETLW  6E
0689:  RETLW  6F
068A:  RETLW  63
068B:  RETLW  69
068C:  RETLW  64
068D:  RETLW  6F
068E:  RETLW  3A
068F:  RETLW  20
0690:  RETLW  25
0691:  RETLW  63
0692:  RETLW  0D
0693:  RETLW  0A
0694:  RETLW  00
0695:  MOVF   52,W
0696:  CLRF   78
0697:  SUBWF  51,W
0698:  BTFSC  03.0
0699:  GOTO   69D
069A:  MOVF   51,W
069B:  MOVWF  77
069C:  GOTO   6A9
069D:  CLRF   77
069E:  MOVLW  08
069F:  MOVWF  53
06A0:  RLF    51,F
06A1:  RLF    77,F
06A2:  MOVF   52,W
06A3:  SUBWF  77,W
06A4:  BTFSC  03.0
06A5:  MOVWF  77
06A6:  RLF    78,F
06A7:  DECFSZ 53,F
06A8:  GOTO   6A0
06A9:  RETURN
06AA:  MOVLW  20
06AB:  BTFSS  4C.4
06AC:  MOVLW  30
06AD:  MOVWF  4D
06AE:  MOVF   4B,W
06AF:  MOVWF  77
06B0:  BTFSS  4B.7
06B1:  GOTO   6BA
06B2:  COMF   77,F
06B3:  INCF   77,F
06B4:  MOVF   77,W
06B5:  MOVWF  4B
06B6:  MOVLW  2D
06B7:  MOVWF  4D
06B8:  BSF    4C.7
06B9:  BSF    4C.0
06BA:  MOVF   4B,W
06BB:  MOVWF  51
06BC:  MOVLW  64
06BD:  MOVWF  52
06BE:  CALL   695
06BF:  MOVF   77,W
06C0:  MOVWF  4B
06C1:  MOVLW  30
06C2:  ADDWF  78,W
06C3:  MOVWF  4E
06C4:  MOVF   4B,W
06C5:  MOVWF  51
06C6:  MOVLW  0A
06C7:  MOVWF  52
06C8:  CALL   695
06C9:  MOVLW  30
06CA:  ADDWF  77,W
06CB:  MOVWF  50
06CC:  MOVLW  30
06CD:  ADDWF  78,W
06CE:  MOVWF  4F
06CF:  MOVF   4D,W
06D0:  MOVWF  77
06D1:  MOVLW  30
06D2:  SUBWF  4E,W
06D3:  BTFSC  03.2
06D4:  GOTO   6D9
06D5:  BSF    4C.1
06D6:  BTFSC  4C.7
06D7:  BSF    4C.2
06D8:  GOTO   6ED
06D9:  MOVF   4D,W
06DA:  MOVWF  4E
06DB:  MOVLW  20
06DC:  MOVWF  4D
06DD:  MOVLW  30
06DE:  SUBWF  4F,W
06DF:  BTFSC  03.2
06E0:  GOTO   6E5
06E1:  BSF    4C.0
06E2:  BTFSC  4C.7
06E3:  BSF    4C.1
06E4:  GOTO   6ED
06E5:  BTFSS  03.2
06E6:  BSF    4C.0
06E7:  BTFSS  03.2
06E8:  GOTO   6ED
06E9:  MOVF   4E,W
06EA:  MOVWF  4F
06EB:  MOVLW  20
06EC:  MOVWF  4E
06ED:  BTFSC  4C.2
06EE:  GOTO   6F4
06EF:  BTFSC  4C.1
06F0:  GOTO   6F8
06F1:  BTFSC  4C.0
06F2:  GOTO   6FC
06F3:  GOTO   700
06F4:  MOVF   4D,W
06F5:  BTFSS  0C.4
06F6:  GOTO   6F5
06F7:  MOVWF  19
06F8:  MOVF   4E,W
06F9:  BTFSS  0C.4
06FA:  GOTO   6F9
06FB:  MOVWF  19
06FC:  MOVF   4F,W
06FD:  BTFSS  0C.4
06FE:  GOTO   6FD
06FF:  MOVWF  19
0700:  MOVF   50,W
0701:  BTFSS  0C.4
0702:  GOTO   701
0703:  MOVWF  19
0704:  RETURN
*
0718:  CLRF   77
0719:  CLRF   78
071A:  MOVF   4B,W
071B:  BCF    03.0
071C:  BTFSC  4C.0
071D:  ADDWF  77,F
071E:  RRF    77,F
071F:  RRF    78,F
0720:  BTFSC  4C.1
0721:  ADDWF  77,F
0722:  RRF    77,F
0723:  RRF    78,F
0724:  BTFSC  4C.2
0725:  ADDWF  77,F
0726:  RRF    77,F
0727:  RRF    78,F
0728:  BTFSC  4C.3
0729:  ADDWF  77,F
072A:  RRF    77,F
072B:  RRF    78,F
072C:  BTFSC  4C.4
072D:  ADDWF  77,F
072E:  RRF    77,F
072F:  RRF    78,F
0730:  BTFSC  4C.5
0731:  ADDWF  77,F
0732:  RRF    77,F
0733:  RRF    78,F
0734:  BTFSC  4C.6
0735:  ADDWF  77,F
0736:  RRF    77,F
0737:  RRF    78,F
0738:  BTFSC  4C.7
0739:  ADDWF  77,F
073A:  RRF    77,F
073B:  RRF    78,F
*
075C:  RETLW  46
075D:  RETLW  72
075E:  RETLW  65
075F:  RETLW  63
0760:  RETLW  75
0761:  RETLW  65
0762:  RETLW  6E
0763:  RETLW  63
0764:  RETLW  69
0765:  RETLW  61
0766:  RETLW  20
0767:  RETLW  63
0768:  RETLW  61
0769:  RETLW  72
076A:  RETLW  64
076B:  RETLW  ED
076C:  RETLW  61
076D:  RETLW  63
076E:  RETLW  61
076F:  RETLW  3A
0770:  RETLW  20
0771:  RETLW  25
0772:  RETLW  64
0773:  RETLW  20
0774:  RETLW  42
0775:  RETLW  50
0776:  RETLW  4D
0777:  RETLW  0D
0778:  RETLW  0A
0779:  RETLW  00
*
07BC:  RETLW  4E
07BD:  RETLW  FA
07BE:  RETLW  6D
07BF:  RETLW  65
07C0:  RETLW  72
07C1:  RETLW  6F
07C2:  RETLW  20
07C3:  RETLW  64
07C4:  RETLW  65
07C5:  RETLW  20
07C6:  RETLW  66
07C7:  RETLW  6C
07C8:  RETLW  61
07C9:  RETLW  6E
07CA:  RETLW  63
07CB:  RETLW  6F
07CC:  RETLW  73
07CD:  RETLW  20
07CE:  RETLW  64
07CF:  RETLW  65
07D0:  RETLW  74
07D1:  RETLW  65
07D2:  RETLW  63
07D3:  RETLW  74
07D4:  RETLW  61
07D5:  RETLW  64
07D6:  RETLW  6F
07D7:  RETLW  73
07D8:  RETLW  3A
07D9:  RETLW  20
07DA:  RETLW  25
07DB:  RETLW  64
07DC:  RETLW  0D
07DD:  RETLW  0A
07DE:  RETLW  00
07DF:  DATA CD,30
07E0:  DATA EE,32
07E1:  DATA EA,37
07E2:  DATA 20,32
07E3:  DATA 65,10
07E4:  DATA EC,30
07E5:  DATA 20,3A
07E6:  DATA E5,36
07E7:  DATA F0,32
07E8:  DATA F2,30
07E9:  DATA F4,3A
07EA:  DATA F2,30
07EB:  DATA 0D,05
07EC:  DATA 00,00
07ED:  DATA CD,30
07EE:  DATA EE,32
07EF:  DATA EA,37
07F0:  DATA 20,32
07F1:  DATA 65,36
07F2:  DATA 20,38
07F3:  DATA E5,39
07F4:  DATA EF,06
07F5:  DATA 0A,00
*
0800:  RETLW  4D
0801:  RETLW  61
0802:  RETLW  6E
0803:  RETLW  65
0804:  RETLW  6A
0805:  RETLW  6F
0806:  RETLW  20
0807:  RETLW  64
0808:  RETLW  65
0809:  RETLW  6C
080A:  RETLW  20
080B:  RETLW  72
080C:  RETLW  69
080D:  RETLW  74
080E:  RETLW  6D
080F:  RETLW  6F
0810:  RETLW  20
0811:  RETLW  63
0812:  RETLW  61
0813:  RETLW  72
0814:  RETLW  64
0815:  RETLW  ED
0816:  RETLW  61
0817:  RETLW  63
0818:  RETLW  6F
0819:  RETLW  0D
081A:  RETLW  0A
081B:  RETLW  00
....................  
.................... #list 
....................  
.................... #device ADC=10 
....................  
.................... #FUSES NOWDT                    //No Watch Dog Timer 
.................... #FUSES NOBROWNOUT               //No brownout reset 
.................... #FUSES NOLVP                    //No low voltage prgming, B3(PIC16) or B5(PIC18) used for I/O 
....................  
.................... #use delay(crystal=4MHz,restart_wdt) 
*
02F4:  MOVLW  4D
02F5:  MOVWF  04
02F6:  BCF    03.7
02F7:  MOVF   00,W
02F8:  BTFSC  03.2
02F9:  GOTO   30B
02FA:  MOVLW  01
02FB:  MOVWF  78
02FC:  MOVLW  BF
02FD:  MOVWF  77
02FE:  CLRWDT
02FF:  DECFSZ 77,F
0300:  GOTO   2FE
0301:  DECFSZ 78,F
0302:  GOTO   2FC
0303:  MOVLW  4A
0304:  MOVWF  77
0305:  DECFSZ 77,F
0306:  GOTO   305
0307:  NOP
0308:  CLRWDT
0309:  DECFSZ 00,F
030A:  GOTO   2FA
030B:  RETURN
.................... #use rs232(baud=9600, xmit=PIN_C6, rcv=PIN_C7) 
....................  
....................  
....................  
.................... #define ERROR 0 
....................  
.................... // Prototipo de funciones 
.................... void init_adc(int channel); 
.................... void handleTemperature(); 
.................... void handleWeight(); 
.................... void handleHeartbeat(); 
.................... void detectFlanco(); 
.................... void init_pwm(); 
.................... void checkTemperature(float temperature); 
....................  
.................... // Variables globales y definiciones  
....................  
.................... // ------- Para TIMER1 (ventana de 10 segundos) 
.................... #define REPEAT_TIME_WINDOW 19       // 10 segundos en milisegundos 
.................... #define SAMPLE_INTERVAL 1           // Intervalo de muestreo del ADC en milisegundos 
....................  
.................... // Variables para temporizadores y medición de tiempo 
.................... int16 count_1ms = 0; 
.................... int16 count_10s = 0; 
....................  
.................... // Variables para leer el ADC y detectar flancos 
.................... int16 adc_port; 
.................... int16 prev_adc_port = 0; 
.................... int flanco_count = 0; 
.................... int heart_rate = 0; 
....................  
.................... // Variables para PWM 
.................... int16 duty; 
.................... int pwm_timer, poscaler; 
....................  
.................... // Para el manejo de la temperatura 
.................... float voltage; 
.................... float temperature; 
.................... float weigth; 
....................  
.................... void main() { 
*
081C:  MOVF   03,W
081D:  ANDLW  1F
081E:  MOVWF  03
081F:  MOVLW  19
0820:  BSF    03.5
0821:  MOVWF  19
0822:  MOVLW  A6
0823:  MOVWF  18
0824:  MOVLW  90
0825:  BCF    03.5
0826:  MOVWF  18
0827:  CLRF   2D
0828:  CLRF   2C
0829:  CLRF   2F
082A:  CLRF   2E
082B:  CLRF   33
082C:  CLRF   32
082D:  CLRF   34
082E:  CLRF   35
082F:  MOVLW  FF
0830:  MOVWF  46
0831:  BSF    03.5
0832:  BSF    1F.0
0833:  BSF    1F.1
0834:  BSF    1F.2
0835:  BCF    1F.3
0836:  MOVLW  07
0837:  MOVWF  1C
0838:  BCF    03.7
....................     set_tris_b(0x00); // Configura el puerto B como salida 
0839:  MOVLW  00
083A:  MOVWF  06
....................     output_b(0x00); // Inicializa el puerto B en 0 
083B:  CLRF   06
083C:  BCF    03.5
083D:  CLRF   06
....................      
....................     setup_timer_1(T1_INTERNAL | T1_DIV_BY_8); // Configura el temporizador 1 para la ventana de 10 segundos 
083E:  MOVLW  B5
083F:  MOVWF  10
....................     set_timer1(0); // Inicializa el temporizador 1 
0840:  CLRF   0E
0841:  CLRF   0F
0842:  CLRF   0E
....................      
....................     enable_interrupts(GLOBAL); // Habilita interrupciones globales 
0843:  MOVLW  C0
0844:  IORWF  0B,F
....................     enable_interrupts(INT_RDA); // Habilita interrupciones del puerto serial 
0845:  BSF    03.5
0846:  BSF    0C.5
....................      
....................     setup_adc_ports(ALL_ANALOG); // Configura todos los puertos del ADC como analógicos 
0847:  BCF    1F.0
0848:  BCF    1F.1
0849:  BCF    1F.2
084A:  BCF    1F.3
....................     setup_adc(ADC_CLOCK_INTERNAL); // Configura el ADC con reloj interno 
084B:  BCF    1F.6
084C:  BCF    03.5
084D:  BSF    1F.6
084E:  BSF    1F.7
084F:  BSF    03.5
0850:  BSF    1F.7
0851:  BCF    03.5
0852:  BSF    1F.0
....................     printf("- Programa iniciado -"); 
0853:  MOVLW  63
0854:  BSF    03.6
0855:  MOVWF  0D
0856:  MOVLW  00
0857:  MOVWF  0F
0858:  BCF    03.6
0859:  CLRF   2B
085A:  BTFSC  0B.7
085B:  BSF    2B.7
085C:  BCF    0B.7
085D:  BCF    0A.3
085E:  CALL   06E
085F:  BSF    0A.3
0860:  BTFSC  2B.7
0861:  BSF    0B.7
....................      
....................     while(TRUE) { 
0862:  GOTO   062
....................         // Bucle principal del programa 
....................     } 
.................... } 
....................  
.................... #INT_RDA // Interrupción al recibir un dato por el puerto serial 
.................... void serial_isr() { 
*
04A7:  BTFSS  0C.5
04A8:  GOTO   4A7
04A9:  MOVF   1A,W
04AA:  MOVWF  4B
*
0863:  SLEEP
....................     char received_char = getc(); // Lee el carácter recibido 
....................  
....................     switch (received_char) { 
*
04AB:  MOVF   4B,W
04AC:  XORLW  30
04AD:  BTFSC  03.2
04AE:  GOTO   4B6
04AF:  XORLW  01
04B0:  BTFSC  03.2
04B1:  GOTO   5FA
04B2:  XORLW  03
04B3:  BTFSC  03.2
04B4:  GOTO   622
04B5:  GOTO   65F
....................         case '0': 
....................             handleTemperature(); 
....................             break; 
*
05F9:  GOTO   674
....................              
....................         case '1': 
....................             handleWeight(); 
....................             break; 
*
0621:  GOTO   674
....................              
....................         case '2': 
....................             handleHeartbeat(); 
....................             break; 
*
065D:  BCF    03.5
065E:  GOTO   674
....................              
....................         default: 
....................             printf("Carácter no reconocido: %c\r\n", received_char); 
065F:  MOVLW  78
0660:  BSF    03.6
0661:  MOVWF  0D
0662:  MOVLW  06
0663:  MOVWF  0F
0664:  MOVLW  18
0665:  BCF    03.6
0666:  MOVWF  4C
0667:  CALL   47E
0668:  MOVF   4B,W
0669:  BTFSS  0C.4
066A:  GOTO   669
066B:  MOVWF  19
066C:  MOVLW  0D
066D:  BTFSS  0C.4
066E:  GOTO   66D
066F:  MOVWF  19
0670:  MOVLW  0A
0671:  BTFSS  0C.4
0672:  GOTO   671
0673:  MOVWF  19
....................             break; 
....................     } 
.................... } 
....................  
0674:  BCF    0C.5
0675:  BCF    0A.3
0676:  BCF    0A.4
0677:  GOTO   039
.................... #int_timer1 
.................... void timer_1() { 
....................     count_10s++; // Incrementa el contador de 10 segundos 
*
0705:  INCF   2E,F
0706:  BTFSC  03.2
0707:  INCF   2F,F
....................      
....................     if (count_10s >= REPEAT_TIME_WINDOW) { 
0708:  MOVF   2F,F
0709:  BTFSS  03.2
070A:  GOTO   70F
070B:  MOVF   2E,W
070C:  SUBLW  12
070D:  BTFSC  03.0
070E:  GOTO   758
....................         output_toggle(PIN_B0); // Alternar el estado del pin B0 
070F:  BSF    03.5
0710:  BCF    06.0
0711:  MOVLW  01
0712:  BCF    03.5
0713:  XORWF  06,F
....................         heart_rate = (flanco_count * 6); // Calcular la frecuencia cardíaca 
0714:  MOVF   34,W
0715:  MOVWF  4B
0716:  MOVLW  06
0717:  MOVWF  4C
*
073C:  MOVF   78,W
073D:  MOVWF  35
....................         printf("Frecuencia cardíaca: %d BPM\r\n", heart_rate); // Imprimir la frecuencia cardíaca 
073E:  MOVLW  5C
073F:  BSF    03.6
0740:  MOVWF  0D
0741:  MOVLW  07
0742:  MOVWF  0F
0743:  MOVLW  15
0744:  BCF    03.6
0745:  MOVWF  4C
0746:  CALL   47E
0747:  MOVF   35,W
0748:  MOVWF  4B
0749:  MOVLW  18
074A:  MOVWF  4C
074B:  CALL   6AA
074C:  MOVLW  73
074D:  BSF    03.6
074E:  MOVWF  0D
074F:  MOVLW  07
0750:  MOVWF  0F
0751:  MOVLW  06
0752:  BCF    03.6
0753:  MOVWF  4C
0754:  CALL   47E
....................         count_10s = 0; // Reinicia el contador de 10 segundos 
0755:  CLRF   2F
0756:  CLRF   2E
....................         flanco_count = 0; // Reinicia el contador de flancos 
0757:  CLRF   34
....................     } 
.................... } 
....................  
0758:  BCF    0C.0
0759:  BCF    0A.3
075A:  BCF    0A.4
075B:  GOTO   039
.................... #int_timer2 
.................... void timer_2() { 
....................     count_1ms++; // Incrementa el contador de 1 ms 
*
077A:  INCF   2C,F
077B:  BTFSC  03.2
077C:  INCF   2D,F
....................     if (count_1ms >= SAMPLE_INTERVAL) { 
077D:  MOVF   2D,F
077E:  BTFSS  03.2
077F:  GOTO   784
0780:  MOVF   2C,W
0781:  SUBLW  00
0782:  BTFSC  03.0
0783:  GOTO   7B8
....................         count_1ms = 0; // Reinicia el contador de 1 ms 
0784:  CLRF   2D
0785:  CLRF   2C
....................         detectFlanco(); // Realiza la detección del flanco cada 1 ms 
....................     } 
*
07B8:  BCF    0C.1
07B9:  BCF    0A.3
07BA:  BCF    0A.4
07BB:  GOTO   039
.................... } 
....................  
.................... void detectFlanco() { 
....................     set_adc_channel(2); // Selecciona el canal ADC 2 (AN2) 
*
0786:  MOVLW  10
0787:  MOVWF  78
0788:  MOVF   1F,W
0789:  ANDLW  C7
078A:  IORWF  78,W
078B:  MOVWF  1F
....................     adc_port = read_adc(); // Lee el valor del ADC 
078C:  BSF    1F.2
078D:  BTFSC  1F.2
078E:  GOTO   78D
078F:  BSF    03.5
0790:  MOVF   1E,W
0791:  BCF    03.5
0792:  MOVWF  30
0793:  MOVF   1E,W
0794:  MOVWF  31
....................  
....................     // Detecta un flanco de subida (de bajo a alto) 
....................     if (prev_adc_port < 512 && adc_port >= 512) { 
0795:  MOVF   33,W
0796:  SUBLW  01
0797:  BTFSS  03.0
0798:  GOTO   7B4
0799:  MOVF   31,W
079A:  SUBLW  01
079B:  BTFSC  03.0
079C:  GOTO   7B4
....................         flanco_count++; // Incrementa el contador de flancos 
079D:  INCF   34,F
....................         printf("Número de flancos detectados: %d\r\n", flanco_count); // Imprime el número de flancos detectados 
079E:  MOVLW  BC
079F:  BSF    03.6
07A0:  MOVWF  0D
07A1:  MOVLW  07
07A2:  MOVWF  0F
07A3:  MOVLW  1E
07A4:  BCF    03.6
07A5:  MOVWF  4C
07A6:  CALL   47E
07A7:  MOVF   34,W
07A8:  MOVWF  4B
07A9:  MOVLW  18
07AA:  MOVWF  4C
07AB:  CALL   6AA
07AC:  MOVLW  0D
07AD:  BTFSS  0C.4
07AE:  GOTO   7AD
07AF:  MOVWF  19
07B0:  MOVLW  0A
07B1:  BTFSS  0C.4
07B2:  GOTO   7B1
07B3:  MOVWF  19
....................     } 
....................  
....................     prev_adc_port = adc_port; // Actualiza el valor previo del ADC 
07B4:  MOVF   31,W
07B5:  MOVWF  33
07B6:  MOVF   30,W
07B7:  MOVWF  32
.................... } 
....................  
.................... void init_adc(int channel) { 
....................     set_adc_channel(channel); 
*
013B:  RLF    4C,W
013C:  MOVWF  77
013D:  RLF    77,F
013E:  RLF    77,F
013F:  MOVLW  F8
0140:  ANDWF  77,F
0141:  MOVF   1F,W
0142:  ANDLW  C7
0143:  IORWF  77,W
0144:  MOVWF  1F
....................     adc_port = read_adc(); 
0145:  BSF    1F.2
0146:  BTFSC  1F.2
0147:  GOTO   146
0148:  BSF    03.5
0149:  MOVF   1E,W
014A:  BCF    03.5
014B:  MOVWF  30
014C:  MOVF   1E,W
014D:  MOVWF  31
....................     voltage = adc_port * (5.0 / 1023.0); 
014E:  MOVF   31,W
014F:  MOVWF  4E
0150:  MOVF   30,W
0151:  MOVWF  4D
*
016E:  MOVF   7A,W
016F:  MOVWF  5C
0170:  MOVF   79,W
0171:  MOVWF  5B
0172:  MOVF   78,W
0173:  MOVWF  5A
0174:  MOVF   77,W
0175:  MOVWF  59
0176:  MOVLW  0A
0177:  MOVWF  60
0178:  MOVLW  28
0179:  MOVWF  5F
017A:  MOVLW  20
017B:  MOVWF  5E
017C:  MOVLW  77
017D:  MOVWF  5D
017E:  CALL   0C6
017F:  MOVF   7A,W
0180:  MOVWF  3D
0181:  MOVF   79,W
0182:  MOVWF  3C
0183:  MOVF   78,W
0184:  MOVWF  3B
0185:  MOVF   77,W
0186:  MOVWF  3A
....................     temperature = voltage * 100; 
0187:  MOVF   3D,W
0188:  MOVWF  5C
0189:  MOVF   3C,W
018A:  MOVWF  5B
018B:  MOVF   3B,W
018C:  MOVWF  5A
018D:  MOVF   3A,W
018E:  MOVWF  59
018F:  CLRF   60
0190:  CLRF   5F
0191:  MOVLW  48
0192:  MOVWF  5E
0193:  MOVLW  85
0194:  MOVWF  5D
0195:  CALL   0C6
0196:  MOVF   7A,W
0197:  MOVWF  41
0198:  MOVF   79,W
0199:  MOVWF  40
019A:  MOVF   78,W
019B:  MOVWF  3F
019C:  MOVF   77,W
019D:  MOVWF  3E
....................     weigth = voltage + ERROR; 
019E:  BCF    03.1
019F:  MOVF   3D,W
01A0:  MOVWF  50
01A1:  MOVF   3C,W
01A2:  MOVWF  4F
01A3:  MOVF   3B,W
01A4:  MOVWF  4E
01A5:  MOVF   3A,W
01A6:  MOVWF  4D
01A7:  CLRF   54
01A8:  CLRF   53
01A9:  CLRF   52
01AA:  CLRF   51
*
02EB:  MOVF   7A,W
02EC:  MOVWF  45
02ED:  MOVF   79,W
02EE:  MOVWF  44
02EF:  MOVF   78,W
02F0:  MOVWF  43
02F1:  MOVF   77,W
02F2:  MOVWF  42
02F3:  RETURN
.................... } 
....................  
.................... void init_pwm(){ 
....................     
....................    pwm_timer =  249; 
*
04BD:  MOVLW  F9
04BE:  MOVWF  38
....................    poscaler = 1; 
04BF:  MOVLW  01
04C0:  MOVWF  39
....................    set_tris_c(0xFE); 
04C1:  MOVLW  FE
04C2:  BSF    03.5
04C3:  MOVWF  07
04C4:  BCF    03.5
04C5:  MOVWF  46
....................    setup_timer_2(T2_DIV_BY_4, pwm_timer, poscaler); 
04C6:  MOVLW  01
04C7:  SUBWF  39,W
04C8:  MOVWF  78
04C9:  RLF    78,W
04CA:  MOVWF  77
04CB:  RLF    77,F
04CC:  RLF    77,F
04CD:  MOVLW  F8
04CE:  ANDWF  77,F
04CF:  MOVF   77,W
04D0:  IORLW  05
04D1:  MOVWF  12
04D2:  MOVF   38,W
04D3:  BSF    03.5
04D4:  MOVWF  12
....................    setup_ccp1(ccp_pwm); 
04D5:  BCF    03.5
04D6:  BCF    46.2
04D7:  MOVF   46,W
04D8:  BSF    03.5
04D9:  MOVWF  07
04DA:  BCF    03.5
04DB:  BCF    07.2
04DC:  MOVLW  0C
04DD:  MOVWF  17
....................    duty = 0; 
04DE:  CLRF   37
04DF:  CLRF   36
....................    while(true){ 
....................       // Lee el adc(3) para determinar la velocidad del motor 
....................       init_adc(3); 
04E0:  MOVLW  03
04E1:  MOVWF  4C
04E2:  CALL   13B
....................       duty = adc_port; 
04E3:  MOVF   31,W
04E4:  MOVWF  37
04E5:  MOVF   30,W
04E6:  MOVWF  36
....................       set_pwm1_duty(duty); 
04E7:  MOVF   37,W
04E8:  MOVWF  79
04E9:  MOVF   36,W
04EA:  MOVWF  78
04EB:  RRF    79,F
04EC:  RRF    78,F
04ED:  RRF    79,F
04EE:  RRF    78,F
04EF:  RRF    79,F
04F0:  MOVF   78,W
04F1:  MOVWF  15
04F2:  RRF    79,F
04F3:  RRF    79,W
04F4:  ANDLW  30
04F5:  MOVWF  77
04F6:  MOVF   17,W
04F7:  ANDLW  CF
04F8:  IORWF  77,W
04F9:  MOVWF  17
....................        
....................       // Lee el adc(0) para determinar la temperatura y con ello, 
....................       // girar el motor hacia la derecha, izquierda o detenerlo 
....................       delay_ms(1000); 
04FA:  MOVLW  04
04FB:  MOVWF  4C
04FC:  MOVLW  FA
04FD:  MOVWF  4D
04FE:  CALL   2F4
04FF:  DECFSZ 4C,F
0500:  GOTO   4FC
....................       init_adc(0); 
0501:  CLRF   4C
0502:  CALL   13B
....................       if(temperature >= 0 & temperature < 30){ // de 0°C a 30°C 
0503:  CLRF   50
0504:  CLRF   4F
0505:  CLRF   4E
0506:  CLRF   4D
0507:  MOVF   41,W
0508:  MOVWF  54
0509:  MOVF   40,W
050A:  MOVWF  53
050B:  MOVF   3F,W
050C:  MOVWF  52
050D:  MOVF   3E,W
050E:  MOVWF  51
050F:  CALL   30C
0510:  BTFSC  03.0
0511:  GOTO   516
0512:  BTFSC  03.2
0513:  GOTO   516
0514:  MOVLW  00
0515:  GOTO   517
0516:  MOVLW  01
0517:  MOVWF  4C
0518:  MOVF   41,W
0519:  MOVWF  50
051A:  MOVF   40,W
051B:  MOVWF  4F
051C:  MOVF   3F,W
051D:  MOVWF  4E
051E:  MOVF   3E,W
051F:  MOVWF  4D
0520:  CLRF   54
0521:  CLRF   53
0522:  MOVLW  70
0523:  MOVWF  52
0524:  MOVLW  83
0525:  MOVWF  51
0526:  CALL   30C
0527:  MOVLW  00
0528:  BTFSC  03.0
0529:  MOVLW  01
052A:  ANDWF  4C,W
052B:  BTFSC  03.2
052C:  GOTO   548
....................          printf("%2.2f\r\n",temperature); 
052D:  MOVLW  89
052E:  MOVWF  04
052F:  MOVF   41,W
0530:  MOVWF  4F
0531:  MOVF   40,W
0532:  MOVWF  4E
0533:  MOVF   3F,W
0534:  MOVWF  4D
0535:  MOVF   3E,W
0536:  MOVWF  4C
0537:  MOVLW  02
0538:  MOVWF  50
0539:  CALL   39A
053A:  MOVLW  0D
053B:  BTFSS  0C.4
053C:  GOTO   53B
053D:  MOVWF  19
053E:  MOVLW  0A
053F:  BTFSS  0C.4
0540:  GOTO   53F
0541:  MOVWF  19
....................          //Giro a la izquierda del motor 
....................          output_b(0x01); 
0542:  BSF    03.5
0543:  CLRF   06
0544:  MOVLW  01
0545:  BCF    03.5
0546:  MOVWF  06
....................           
....................       } else if(temperature > 30 & temperature < 50){ 
0547:  GOTO   5F8
0548:  CLRF   50
0549:  CLRF   4F
054A:  MOVLW  70
054B:  MOVWF  4E
054C:  MOVLW  83
054D:  MOVWF  4D
054E:  MOVF   41,W
054F:  MOVWF  54
0550:  MOVF   40,W
0551:  MOVWF  53
0552:  MOVF   3F,W
0553:  MOVWF  52
0554:  MOVF   3E,W
0555:  MOVWF  51
0556:  CALL   30C
0557:  MOVLW  00
0558:  BTFSC  03.0
0559:  MOVLW  01
055A:  MOVWF  4C
055B:  MOVF   41,W
055C:  MOVWF  50
055D:  MOVF   40,W
055E:  MOVWF  4F
055F:  MOVF   3F,W
0560:  MOVWF  4E
0561:  MOVF   3E,W
0562:  MOVWF  4D
0563:  CLRF   54
0564:  CLRF   53
0565:  MOVLW  48
0566:  MOVWF  52
0567:  MOVLW  84
0568:  MOVWF  51
0569:  CALL   30C
056A:  MOVLW  00
056B:  BTFSC  03.0
056C:  MOVLW  01
056D:  ANDWF  4C,W
056E:  BTFSC  03.2
056F:  GOTO   58A
....................          printf("%2.2f\r\n",temperature); 
0570:  MOVLW  89
0571:  MOVWF  04
0572:  MOVF   41,W
0573:  MOVWF  4F
0574:  MOVF   40,W
0575:  MOVWF  4E
0576:  MOVF   3F,W
0577:  MOVWF  4D
0578:  MOVF   3E,W
0579:  MOVWF  4C
057A:  MOVLW  02
057B:  MOVWF  50
057C:  CALL   39A
057D:  MOVLW  0D
057E:  BTFSS  0C.4
057F:  GOTO   57E
0580:  MOVWF  19
0581:  MOVLW  0A
0582:  BTFSS  0C.4
0583:  GOTO   582
0584:  MOVWF  19
....................          // No hace nada 
....................          output_b(0x00); 
0585:  BSF    03.5
0586:  CLRF   06
0587:  BCF    03.5
0588:  CLRF   06
....................           
....................       } else if(temperature > 50 & temperature < 100) { 
0589:  GOTO   5F8
058A:  CLRF   50
058B:  CLRF   4F
058C:  MOVLW  48
058D:  MOVWF  4E
058E:  MOVLW  84
058F:  MOVWF  4D
0590:  MOVF   41,W
0591:  MOVWF  54
0592:  MOVF   40,W
0593:  MOVWF  53
0594:  MOVF   3F,W
0595:  MOVWF  52
0596:  MOVF   3E,W
0597:  MOVWF  51
0598:  CALL   30C
0599:  MOVLW  00
059A:  BTFSC  03.0
059B:  MOVLW  01
059C:  MOVWF  4C
059D:  MOVF   41,W
059E:  MOVWF  50
059F:  MOVF   40,W
05A0:  MOVWF  4F
05A1:  MOVF   3F,W
05A2:  MOVWF  4E
05A3:  MOVF   3E,W
05A4:  MOVWF  4D
05A5:  CLRF   54
05A6:  CLRF   53
05A7:  MOVLW  48
05A8:  MOVWF  52
05A9:  MOVLW  85
05AA:  MOVWF  51
05AB:  CALL   30C
05AC:  MOVLW  00
05AD:  BTFSC  03.0
05AE:  MOVLW  01
05AF:  ANDWF  4C,W
05B0:  BTFSC  03.2
05B1:  GOTO   5CD
....................          printf("%2.2f\r\n",temperature); 
05B2:  MOVLW  89
05B3:  MOVWF  04
05B4:  MOVF   41,W
05B5:  MOVWF  4F
05B6:  MOVF   40,W
05B7:  MOVWF  4E
05B8:  MOVF   3F,W
05B9:  MOVWF  4D
05BA:  MOVF   3E,W
05BB:  MOVWF  4C
05BC:  MOVLW  02
05BD:  MOVWF  50
05BE:  CALL   39A
05BF:  MOVLW  0D
05C0:  BTFSS  0C.4
05C1:  GOTO   5C0
05C2:  MOVWF  19
05C3:  MOVLW  0A
05C4:  BTFSS  0C.4
05C5:  GOTO   5C4
05C6:  MOVWF  19
....................          //Giro a la derecha del motor 
....................          output_b(0x02); 
05C7:  BSF    03.5
05C8:  CLRF   06
05C9:  MOVLW  02
05CA:  BCF    03.5
05CB:  MOVWF  06
....................           
....................       }else if(temperature > 100){ 
05CC:  GOTO   5F8
05CD:  CLRF   50
05CE:  CLRF   4F
05CF:  MOVLW  48
05D0:  MOVWF  4E
05D1:  MOVLW  85
05D2:  MOVWF  4D
05D3:  MOVF   41,W
05D4:  MOVWF  54
05D5:  MOVF   40,W
05D6:  MOVWF  53
05D7:  MOVF   3F,W
05D8:  MOVWF  52
05D9:  MOVF   3E,W
05DA:  MOVWF  51
05DB:  CALL   30C
05DC:  BTFSS  03.0
05DD:  GOTO   5F8
....................          printf("%2.2f\r\n",temperature); 
05DE:  MOVLW  89
05DF:  MOVWF  04
05E0:  MOVF   41,W
05E1:  MOVWF  4F
05E2:  MOVF   40,W
05E3:  MOVWF  4E
05E4:  MOVF   3F,W
05E5:  MOVWF  4D
05E6:  MOVF   3E,W
05E7:  MOVWF  4C
05E8:  MOVLW  02
05E9:  MOVWF  50
05EA:  CALL   39A
05EB:  MOVLW  0D
05EC:  BTFSS  0C.4
05ED:  GOTO   5EC
05EE:  MOVWF  19
05EF:  MOVLW  0A
05F0:  BTFSS  0C.4
05F1:  GOTO   5F0
05F2:  MOVWF  19
....................          output_b(0x04); 
05F3:  BSF    03.5
05F4:  CLRF   06
05F5:  MOVLW  04
05F6:  BCF    03.5
05F7:  MOVWF  06
....................           
....................       } 
05F8:  GOTO   4E0
....................    } 
.................... } 
....................  
....................  
....................  
.................... void handleTemperature() { 
....................     // Implementa el manejo de la temperatura aquí 
....................     printf("Manejo de la temperatura\r\n"); 
*
04B6:  MOVLW  DF
04B7:  BSF    03.6
04B8:  MOVWF  0D
04B9:  MOVLW  07
04BA:  MOVWF  0F
04BB:  BCF    03.6
04BC:  CALL   06E
....................     init_pwm(); 
....................      
.................... } 
....................  
.................... void handleWeight() { 
....................     // Implementa el manejo del peso aquí 
....................     printf("Manejo del peso\r\n"); 
*
05FA:  MOVLW  ED
05FB:  BSF    03.6
05FC:  MOVWF  0D
05FD:  MOVLW  07
05FE:  MOVWF  0F
05FF:  BCF    03.6
0600:  CALL   06E
....................      
....................     while(true){ 
....................       init_adc(1); 
0601:  MOVLW  01
0602:  MOVWF  4C
0603:  CALL   13B
....................       printf("%2.2f\r\n",weigth); 
0604:  MOVLW  89
0605:  MOVWF  04
0606:  MOVF   45,W
0607:  MOVWF  4F
0608:  MOVF   44,W
0609:  MOVWF  4E
060A:  MOVF   43,W
060B:  MOVWF  4D
060C:  MOVF   42,W
060D:  MOVWF  4C
060E:  MOVLW  02
060F:  MOVWF  50
0610:  CALL   39A
0611:  MOVLW  0D
0612:  BTFSS  0C.4
0613:  GOTO   612
0614:  MOVWF  19
0615:  MOVLW  0A
0616:  BTFSS  0C.4
0617:  GOTO   616
0618:  MOVWF  19
....................       delay_ms(400); 
0619:  MOVLW  02
061A:  MOVWF  4C
061B:  MOVLW  C8
061C:  MOVWF  4D
061D:  CALL   2F4
061E:  DECFSZ 4C,F
061F:  GOTO   61B
0620:  GOTO   601
....................     } 
.................... } 
....................  
.................... void handleHeartbeat() { 
....................     // Implementa el manejo del ritmo cardíaco aquí 
....................     printf("Manejo del ritmo cardíaco\r\n"); 
*
0622:  MOVLW  00
0623:  BSF    03.6
0624:  MOVWF  0D
0625:  MOVLW  08
0626:  MOVWF  0F
....................     enable_interrupts(INT_TIMER1); // Habilita interrupciones del temporizador 1 
*
0651:  BSF    03.5
0652:  BCF    03.6
0653:  BSF    0C.0
....................      
....................     setup_timer_2(T2_DIV_BY_16, 249, 1); // Configura el temporizador 2 para interrupciones cada 1 ms 
0654:  MOVLW  00
0655:  MOVWF  78
0656:  IORLW  06
0657:  BCF    03.5
0658:  MOVWF  12
0659:  MOVLW  F9
065A:  BSF    03.5
065B:  MOVWF  12
....................     enable_interrupts(INT_TIMER2); // Habilita interrupciones del temporizador 2 
065C:  BSF    0C.1
.................... } 
....................  

Configuration Fuses:
   Word  1: 3F31   XT NOWDT PUT NOBROWNOUT NOLVP NOCPD NOWRT NODEBUG NOPROTECT
